target datalayout = "e-m:e-p270:32:32-p271:32:32-p272:64:64-i64:64-i128:128-f80:128-n8:16:32:64-S128"
target triple = "x86_64-pc-linux-gnu"

@.str.20 = private unnamed_addr constant [4 x i8] c"N/A\00", align 1

; Function Attrs: nounwind uwtable
define void @avtext_print_ts(ptr noundef %0, ptr noundef %1, i64 noundef %2, i32 noundef %3) #0 {
  %5 = alloca ptr, align 8
  %6 = alloca ptr, align 8
  %7 = alloca i64, align 8
  %8 = alloca i32, align 4
  store ptr %0, ptr %5, align 8, !tbaa !10
  store ptr %1, ptr %6, align 8, !tbaa !30
  store i64 %2, ptr %7, align 8, !tbaa !70
  store i32 %3, ptr %8, align 4, !tbaa !12
  %9 = load i32, ptr %8, align 4, !tbaa !12
  %10 = icmp ne i32 %9, 0
  br i1 %10, label %14, label %11

11:                                               ; preds = %4
  %12 = load i64, ptr %7, align 8, !tbaa !70
  %13 = icmp eq i64 %12, -9223372036854775808
  br i1 %13, label %20, label %14

14:                                               ; preds = %11, %4
  %15 = load i32, ptr %8, align 4, !tbaa !12
  %16 = icmp ne i32 %15, 0
  br i1 %16, label %17, label %24

17:                                               ; preds = %14
  %18 = load i64, ptr %7, align 8, !tbaa !70
  %19 = icmp eq i64 %18, 0
  br i1 %19, label %20, label %24

20:                                               ; preds = %17, %11
  %21 = load ptr, ptr %5, align 8, !tbaa !10
  %22 = load ptr, ptr %6, align 8, !tbaa !30
  %23 = call i32 @avtext_print_string(ptr noundef %21, ptr noundef %22, ptr noundef @.str.20, i32 noundef 1)
  br label %28

24:                                               ; preds = %17, %14
  %25 = load ptr, ptr %5, align 8, !tbaa !10
  %26 = load ptr, ptr %6, align 8, !tbaa !30
  %27 = load i64, ptr %7, align 8, !tbaa !70
  call void @avtext_print_integer(ptr noundef %25, ptr noundef %26, i64 noundef %27, i32 noundef 0)
  br label %28

28:                                               ; preds = %24, %20
  ret void
}