; Function Attrs: nounwind uwtable
define void @avtext_print_ts(ptr noundef %0, ptr noundef %1, i64 noundef %2, i32 noundef %3) local_unnamed_addr #0 {
  %5 = icmp eq i32 %3, 0
  %6 = icmp eq i64 %2, -9223372036854775808
  %or.cond = and i1 %6, %5
  br i1 %or.cond, label %10, label %7

7:                                                ; preds = %4
  %8 = icmp ne i32 %3, 0
  %9 = icmp eq i64 %2, 0
  %or.cond3 = and i1 %9, %8
  br i1 %or.cond3, label %10, label %12

10:                                               ; preds = %7, %4
  %11 = tail call i32 @avtext_print_string(ptr noundef %0, ptr noundef %1, ptr noundef nonnull @.str.20, i32 noundef 1)
  br label %13

12:                                               ; preds = %7
  tail call void @avtext_print_integer(ptr noundef %0, ptr noundef %1, i64 noundef %2, i32 noundef 0)
  br label %13

13:                                               ; preds = %12, %10
  ret void
}